target datalayout = "e-m:e-p270:32:32-p271:32:32-p272:64:64-i64:64-i128:128-f80:128-n8:16:32:64-S128"
target triple = "x86_64-unknown-linux-gnu"

%"class.rocksdb::BlockHandle" = type { i64, i64 }
%"class.rocksdb::CacheKey" = type { i64, i64 }

; Function Attrs: mustprogress nounwind uwtable
define linkonce_odr void @_ZN7rocksdb8CacheKeyC2Emm(ptr noundef nonnull align 8 dereferenceable(16) %this, i64 noundef %file_num_etc64, i64 noundef %offset_etc64) unnamed_addr #1 comdat align 2 {
entry:
  %this.addr = alloca ptr, align 8
  %file_num_etc64.addr = alloca i64, align 8
  %offset_etc64.addr = alloca i64, align 8
  store ptr %this, ptr %this.addr, align 8
  store i64 %file_num_etc64, ptr %file_num_etc64.addr, align 8
  store i64 %offset_etc64, ptr %offset_etc64.addr, align 8
  %this1 = load ptr, ptr %this.addr, align 8
  %file_num_etc64_ = getelementptr inbounds %"class.rocksdb::CacheKey", ptr %this1, i32 0, i32 0
  %0 = load i64, ptr %file_num_etc64.addr, align 8
  store i64 %0, ptr %file_num_etc64_, align 8
  %offset_etc64_ = getelementptr inbounds %"class.rocksdb::CacheKey", ptr %this1, i32 0, i32 1
  %1 = load i64, ptr %offset_etc64.addr, align 8
  store i64 %1, ptr %offset_etc64_, align 8
  ret void
}

; Function Attrs: mustprogress uwtable
define linkonce_odr { i64, i64 } @_ZNK7rocksdb18OffsetableCacheKey10WithOffsetEm(ptr noundef nonnull align 8 dereferenceable(16) %this, i64 noundef %offset) #0 comdat align 2 {
entry:
  %retval = alloca %"class.rocksdb::CacheKey", align 8
  %this.addr = alloca ptr, align 8
  %offset.addr = alloca i64, align 8
  store ptr %this, ptr %this.addr, align 8
  store i64 %offset, ptr %offset.addr, align 8
  %this1 = load ptr, ptr %this.addr, align 8
  %file_num_etc64_ = getelementptr inbounds %"class.rocksdb::CacheKey", ptr %this1, i32 0, i32 0
  %0 = load i64, ptr %file_num_etc64_, align 8
  %offset_etc64_ = getelementptr inbounds %"class.rocksdb::CacheKey", ptr %this1, i32 0, i32 1
  %1 = load i64, ptr %offset_etc64_, align 8
  %2 = load i64, ptr %offset.addr, align 8
  %xor = xor i64 %1, %2
  call void @_ZN7rocksdb8CacheKeyC2Emm(ptr noundef nonnull align 8 dereferenceable(16) %retval, i64 noundef %0, i64 noundef %xor)
  %3 = load { i64, i64 }, ptr %retval, align 8
  ret { i64, i64 } %3
}

; Function Attrs: mustprogress nounwind uwtable
define linkonce_odr noundef i64 @_ZNK7rocksdb11BlockHandle6offsetEv(ptr noundef nonnull align 8 dereferenceable(16) %this) #1 comdat align 2 {
entry:
  %this.addr = alloca ptr, align 8
  store ptr %this, ptr %this.addr, align 8
  %this1 = load ptr, ptr %this.addr, align 8
  %offset_ = getelementptr inbounds %"class.rocksdb::BlockHandle", ptr %this1, i32 0, i32 0
  %0 = load i64, ptr %offset_, align 8
  ret i64 %0
}

; Function Attrs: mustprogress uwtable
define { i64, i64 } @_ZN7rocksdb15BlockBasedTable11GetCacheKeyERKNS_18OffsetableCacheKeyERKNS_11BlockHandleE(ptr noundef nonnull align 8 dereferenceable(16) %base_cache_key, ptr noundef nonnull align 8 dereferenceable(16) %handle) #0 align 2 {
entry:
  %retval = alloca %"class.rocksdb::CacheKey", align 8
  %base_cache_key.addr = alloca ptr, align 8
  %handle.addr = alloca ptr, align 8
  store ptr %base_cache_key, ptr %base_cache_key.addr, align 8
  store ptr %handle, ptr %handle.addr, align 8
  %0 = load ptr, ptr %base_cache_key.addr, align 8
  %1 = load ptr, ptr %handle.addr, align 8
  %call = call noundef i64 @_ZNK7rocksdb11BlockHandle6offsetEv(ptr noundef nonnull align 8 dereferenceable(16) %1)
  %shr = lshr i64 %call, 2
  %call1 = call { i64, i64 } @_ZNK7rocksdb18OffsetableCacheKey10WithOffsetEm(ptr noundef nonnull align 8 dereferenceable(16) %0, i64 noundef %shr)
  %2 = getelementptr inbounds { i64, i64 }, ptr %retval, i32 0, i32 0
  %3 = extractvalue { i64, i64 } %call1, 0
  store i64 %3, ptr %2, align 8
  %4 = getelementptr inbounds { i64, i64 }, ptr %retval, i32 0, i32 1
  %5 = extractvalue { i64, i64 } %call1, 1
  store i64 %5, ptr %4, align 8
  %6 = load { i64, i64 }, ptr %retval, align 8
  ret { i64, i64 } %6
}