; Function Attrs: mustprogress nofree norecurse nosync nounwind willreturn memory(argmem: read) uwtable
define { i64, i64 } @_ZN7rocksdb15BlockBasedTable11GetCacheKeyERKNS_18OffsetableCacheKeyERKNS_11BlockHandleE(ptr nocapture noundef nonnull readonly align 8 dereferenceable(16) %base_cache_key, ptr nocapture noundef nonnull readonly align 8 dereferenceable(16) %handle) local_unnamed_addr #9 align 2 {
entry:
  %0 = load i64, ptr %handle, align 8
  %shr = lshr i64 %0, 2
  %1 = load i64, ptr %base_cache_key, align 8
  %offset_etc64_.i = getelementptr inbounds i8, ptr %base_cache_key, i64 8
  %2 = load i64, ptr %offset_etc64_.i, align 8
  %xor.i = xor i64 %2, %shr
  %.fca.0.insert.i = insertvalue { i64, i64 } poison, i64 %1, 0
  %.fca.1.insert.i = insertvalue { i64, i64 } %.fca.0.insert.i, i64 %xor.i, 1
  ret { i64, i64 } %.fca.1.insert.i
}